; ModuleID = '39/911.c'
source_filename = "39/911.c"
target datalayout = "e-m:e-p270:32:32-p271:32:32-p272:64:64-i64:64-f80:128-n8:16:32:64-S128"
target triple = "x86_64-pc-linux-gnu"

%struct.student = type { [21 x i8], i32, i32, i8, i8, i32 }

@.str = private unnamed_addr constant [3 x i8] c"%d\00", align 1
@.str.1 = private unnamed_addr constant [18 x i8] c"%s %d %d %c %c %d\00", align 1
@.str.2 = private unnamed_addr constant [10 x i8] c"%s\0A%d\0A%d\0A\00", align 1

; Function Attrs: noinline nounwind uwtable
define dso_local void @main() #0 {
  %1 = alloca [100 x %struct.student], align 16
  %2 = alloca i32, align 4
  %3 = alloca i32, align 4
  %4 = alloca [100 x i32], align 16
  %5 = alloca i32, align 4
  %6 = alloca i32, align 4
  %7 = alloca i32, align 4
  %8 = bitcast [100 x i32]* %4 to i8*
  call void @llvm.memset.p0i8.i64(i8* align 16 %8, i8 0, i64 400, i1 false)
  store i32 0, i32* %5, align 4
  %9 = call i32 (i8*, ...) @__isoc99_scanf(i8* getelementptr inbounds ([3 x i8], [3 x i8]* @.str, i64 0, i64 0), i32* %2)
  store i32 0, i32* %3, align 4
  br label %10

10:                                               ; preds = %41, %0
  %11 = load i32, i32* %3, align 4
  %12 = load i32, i32* %2, align 4
  %13 = icmp slt i32 %11, %12
  br i1 %13, label %14, label %44

14:                                               ; preds = %10
  %15 = load i32, i32* %3, align 4
  %16 = sext i32 %15 to i64
  %17 = getelementptr inbounds [100 x %struct.student], [100 x %struct.student]* %1, i64 0, i64 %16
  %18 = getelementptr inbounds %struct.student, %struct.student* %17, i32 0, i32 0
  %19 = getelementptr inbounds [21 x i8], [21 x i8]* %18, i64 0, i64 0
  %20 = load i32, i32* %3, align 4
  %21 = sext i32 %20 to i64
  %22 = getelementptr inbounds [100 x %struct.student], [100 x %struct.student]* %1, i64 0, i64 %21
  %23 = getelementptr inbounds %struct.student, %struct.student* %22, i32 0, i32 1
  %24 = load i32, i32* %3, align 4
  %25 = sext i32 %24 to i64
  %26 = getelementptr inbounds [100 x %struct.student], [100 x %struct.student]* %1, i64 0, i64 %25
  %27 = getelementptr inbounds %struct.student, %struct.student* %26, i32 0, i32 2
  %28 = load i32, i32* %3, align 4
  %29 = sext i32 %28 to i64
  %30 = getelementptr inbounds [100 x %struct.student], [100 x %struct.student]* %1, i64 0, i64 %29
  %31 = getelementptr inbounds %struct.student, %struct.student* %30, i32 0, i32 3
  %32 = load i32, i32* %3, align 4
  %33 = sext i32 %32 to i64
  %34 = getelementptr inbounds [100 x %struct.student], [100 x %struct.student]* %1, i64 0, i64 %33
  %35 = getelementptr inbounds %struct.student, %struct.student* %34, i32 0, i32 4
  %36 = load i32, i32* %3, align 4
  %37 = sext i32 %36 to i64
  %38 = getelementptr inbounds [100 x %struct.student], [100 x %struct.student]* %1, i64 0, i64 %37
  %39 = getelementptr inbounds %struct.student, %struct.student* %38, i32 0, i32 5
  %40 = call i32 (i8*, ...) @__isoc99_scanf(i8* getelementptr inbounds ([18 x i8], [18 x i8]* @.str.1, i64 0, i64 0), i8* %19, i32* %23, i32* %27, i8* %31, i8* %35, i32* %39)
  br label %41

41:                                               ; preds = %14
  %42 = load i32, i32* %3, align 4
  %43 = add nsw i32 %42, 1
  store i32 %43, i32* %3, align 4
  br label %10

44:                                               ; preds = %10
  store i32 0, i32* %3, align 4
  br label %45

45:                                               ; preds = %174, %44
  %46 = load i32, i32* %3, align 4
  %47 = load i32, i32* %2, align 4
  %48 = icmp slt i32 %46, %47
  br i1 %48, label %49, label %177

49:                                               ; preds = %45
  %50 = load i32, i32* %3, align 4
  %51 = sext i32 %50 to i64
  %52 = getelementptr inbounds [100 x %struct.student], [100 x %struct.student]* %1, i64 0, i64 %51
  %53 = getelementptr inbounds %struct.student, %struct.student* %52, i32 0, i32 1
  %54 = load i32, i32* %53, align 8
  %55 = icmp sgt i32 %54, 80
  br i1 %55, label %56, label %69

56:                                               ; preds = %49
  %57 = load i32, i32* %3, align 4
  %58 = sext i32 %57 to i64
  %59 = getelementptr inbounds [100 x %struct.student], [100 x %struct.student]* %1, i64 0, i64 %58
  %60 = getelementptr inbounds %struct.student, %struct.student* %59, i32 0, i32 5
  %61 = load i32, i32* %60, align 4
  %62 = icmp sge i32 %61, 1
  br i1 %62, label %63, label %69

63:                                               ; preds = %56
  %64 = load i32, i32* %3, align 4
  %65 = sext i32 %64 to i64
  %66 = getelementptr inbounds [100 x i32], [100 x i32]* %4, i64 0, i64 %65
  %67 = load i32, i32* %66, align 4
  %68 = add nsw i32 %67, 8000
  store i32 %68, i32* %66, align 4
  br label %69

69:                                               ; preds = %63, %56, %49
  %70 = load i32, i32* %3, align 4
  %71 = sext i32 %70 to i64
  %72 = getelementptr inbounds [100 x %struct.student], [100 x %struct.student]* %1, i64 0, i64 %71
  %73 = getelementptr inbounds %struct.student, %struct.student* %72, i32 0, i32 1
  %74 = load i32, i32* %73, align 8
  %75 = icmp sgt i32 %74, 85
  br i1 %75, label %76, label %89

76:                                               ; preds = %69
  %77 = load i32, i32* %3, align 4
  %78 = sext i32 %77 to i64
  %79 = getelementptr inbounds [100 x %struct.student], [100 x %struct.student]* %1, i64 0, i64 %78
  %80 = getelementptr inbounds %struct.student, %struct.student* %79, i32 0, i32 2
  %81 = load i32, i32* %80, align 4
  %82 = icmp sgt i32 %81, 80
  br i1 %82, label %83, label %89

83:                                               ; preds = %76
  %84 = load i32, i32* %3, align 4
  %85 = sext i32 %84 to i64
  %86 = getelementptr inbounds [100 x i32], [100 x i32]* %4, i64 0, i64 %85
  %87 = load i32, i32* %86, align 4
  %88 = add nsw i32 %87, 4000
  store i32 %88, i32* %86, align 4
  br label %89

89:                                               ; preds = %83, %76, %69
  %90 = load i32, i32* %3, align 4
  %91 = sext i32 %90 to i64
  %92 = getelementptr inbounds [100 x %struct.student], [100 x %struct.student]* %1, i64 0, i64 %91
  %93 = getelementptr inbounds %struct.student, %struct.student* %92, i32 0, i32 1
  %94 = load i32, i32* %93, align 8
  %95 = icmp sgt i32 %94, 90
  br i1 %95, label %96, label %102

96:                                               ; preds = %89
  %97 = load i32, i32* %3, align 4
  %98 = sext i32 %97 to i64
  %99 = getelementptr inbounds [100 x i32], [100 x i32]* %4, i64 0, i64 %98
  %100 = load i32, i32* %99, align 4
  %101 = add nsw i32 %100, 2000
  store i32 %101, i32* %99, align 4
  br label %102

102:                                              ; preds = %96, %89
  %103 = load i32, i32* %3, align 4
  %104 = sext i32 %103 to i64
  %105 = getelementptr inbounds [100 x %struct.student], [100 x %struct.student]* %1, i64 0, i64 %104
  %106 = getelementptr inbounds %struct.student, %struct.student* %105, i32 0, i32 1
  %107 = load i32, i32* %106, align 8
  %108 = icmp sgt i32 %107, 85
  br i1 %108, label %109, label %123

109:                                              ; preds = %102
  %110 = load i32, i32* %3, align 4
  %111 = sext i32 %110 to i64
  %112 = getelementptr inbounds [100 x %struct.student], [100 x %struct.student]* %1, i64 0, i64 %111
  %113 = getelementptr inbounds %struct.student, %struct.student* %112, i32 0, i32 4
  %114 = load i8, i8* %113, align 1
  %115 = sext i8 %114 to i32
  %116 = icmp eq i32 %115, 89
  br i1 %116, label %117, label %123

117:                                              ; preds = %109
  %118 = load i32, i32* %3, align 4
  %119 = sext i32 %118 to i64
  %120 = getelementptr inbounds [100 x i32], [100 x i32]* %4, i64 0, i64 %119
  %121 = load i32, i32* %120, align 4
  %122 = add nsw i32 %121, 1000
  store i32 %122, i32* %120, align 4
  br label %123

123:                                              ; preds = %117, %109, %102
  %124 = load i32, i32* %3, align 4
  %125 = sext i32 %124 to i64
  %126 = getelementptr inbounds [100 x %struct.student], [100 x %struct.student]* %1, i64 0, i64 %125
  %127 = getelementptr inbounds %struct.student, %struct.student* %126, i32 0, i32 2
  %128 = load i32, i32* %127, align 4
  %129 = icmp sgt i32 %128, 80
  br i1 %129, label %130, label %144

130:                                              ; preds = %123
  %131 = load i32, i32* %3, align 4
  %132 = sext i32 %131 to i64
  %133 = getelementptr inbounds [100 x %struct.student], [100 x %struct.student]* %1, i64 0, i64 %132
  %134 = getelementptr inbounds %struct.student, %struct.student* %133, i32 0, i32 3
  %135 = load i8, i8* %134, align 8
  %136 = sext i8 %135 to i32
  %137 = icmp eq i32 %136, 89
  br i1 %137, label %138, label %144

138:                                              ; preds = %130
  %139 = load i32, i32* %3, align 4
  %140 = sext i32 %139 to i64
  %141 = getelementptr inbounds [100 x i32], [100 x i32]* %4, i64 0, i64 %140
  %142 = load i32, i32* %141, align 4
  %143 = add nsw i32 %142, 850
  store i32 %143, i32* %141, align 4
  br label %144

144:                                              ; preds = %138, %130, %123
  %145 = load i32, i32* %3, align 4
  %146 = sext i32 %145 to i64
  %147 = getelementptr inbounds [100 x i32], [100 x i32]* %4, i64 0, i64 %146
  %148 = load i32, i32* %147, align 4
  %149 = load i32, i32* %5, align 4
  %150 = add nsw i32 %149, %148
  store i32 %150, i32* %5, align 4
  %151 = load i32, i32* %3, align 4
  %152 = icmp eq i32 %151, 0
  br i1 %152, label %153, label %159

153:                                              ; preds = %144
  %154 = load i32, i32* %3, align 4
  %155 = sext i32 %154 to i64
  %156 = getelementptr inbounds [100 x i32], [100 x i32]* %4, i64 0, i64 %155
  %157 = load i32, i32* %156, align 4
  store i32 %157, i32* %6, align 4
  %158 = load i32, i32* %3, align 4
  store i32 %158, i32* %7, align 4
  br label %173

159:                                              ; preds = %144
  %160 = load i32, i32* %3, align 4
  %161 = sext i32 %160 to i64
  %162 = getelementptr inbounds [100 x i32], [100 x i32]* %4, i64 0, i64 %161
  %163 = load i32, i32* %162, align 4
  %164 = load i32, i32* %6, align 4
  %165 = icmp sgt i32 %163, %164
  br i1 %165, label %166, label %172

166:                                              ; preds = %159
  %167 = load i32, i32* %3, align 4
  %168 = sext i32 %167 to i64
  %169 = getelementptr inbounds [100 x i32], [100 x i32]* %4, i64 0, i64 %168
  %170 = load i32, i32* %169, align 4
  store i32 %170, i32* %6, align 4
  %171 = load i32, i32* %3, align 4
  store i32 %171, i32* %7, align 4
  br label %172

172:                                              ; preds = %166, %159
  br label %173

173:                                              ; preds = %172, %153
  br label %174

174:                                              ; preds = %173
  %175 = load i32, i32* %3, align 4
  %176 = add nsw i32 %175, 1
  store i32 %176, i32* %3, align 4
  br label %45

177:                                              ; preds = %45
  %178 = load i32, i32* %7, align 4
  %179 = sext i32 %178 to i64
  %180 = getelementptr inbounds [100 x %struct.student], [100 x %struct.student]* %1, i64 0, i64 %179
  %181 = getelementptr inbounds %struct.student, %struct.student* %180, i32 0, i32 0
  %182 = getelementptr inbounds [21 x i8], [21 x i8]* %181, i64 0, i64 0
  %183 = load i32, i32* %7, align 4
  %184 = sext i32 %183 to i64
  %185 = getelementptr inbounds [100 x i32], [100 x i32]* %4, i64 0, i64 %184
  %186 = load i32, i32* %185, align 4
  %187 = load i32, i32* %5, align 4
  %188 = call i32 (i8*, ...) @printf(i8* getelementptr inbounds ([10 x i8], [10 x i8]* @.str.2, i64 0, i64 0), i8* %182, i32 %186, i32 %187)
  ret void
}

; Function Attrs: argmemonly nounwind willreturn
declare void @llvm.memset.p0i8.i64(i8* nocapture writeonly, i8, i64, i1 immarg) #1

declare dso_local i32 @__isoc99_scanf(i8*, ...) #2

declare dso_local i32 @printf(i8*, ...) #2


!llvm.module.flags = !{!0}
!llvm.ident = !{!1}

!0 = !{i32 1, !"wchar_size", i32 4}
!1 = !{!"clang version 10.0.0-4ubuntu1 "}
