; ModuleID = 'source-C-CXX/38/911.c'
source_filename = "source-C-CXX/38/911.c"
target datalayout = "e-m:e-p270:32:32-p271:32:32-p272:64:64-i64:64-f80:128-n8:16:32:64-S128"
target triple = "x86_64-pc-linux-gnu"

%struct.student = type { [21 x i8], i32, i32, i8, i8, i32 }

@.str = private unnamed_addr constant [3 x i8] c"%d\00", align 1
@.str.1 = private unnamed_addr constant [18 x i8] c"%s %d %d %c %c %d\00", align 1
@.str.2 = private unnamed_addr constant [10 x i8] c"%s\0A%d\0A%d\0A\00", align 1

; Function Attrs: nofree nounwind sspstrong uwtable
define dso_local void @main() local_unnamed_addr #0 {
  %1 = alloca [100 x %struct.student], align 16
  %2 = alloca i32, align 4
  %3 = alloca [100 x i32], align 16
  %4 = getelementptr inbounds [100 x %struct.student], [100 x %struct.student]* %1, i64 0, i64 0, i32 0, i64 0
  call void @llvm.lifetime.start.p0i8(i64 4000, i8* nonnull %4) #4
  %5 = bitcast i32* %2 to i8*
  call void @llvm.lifetime.start.p0i8(i64 4, i8* nonnull %5) #4
  %6 = bitcast [100 x i32]* %3 to i8*
  call void @llvm.lifetime.start.p0i8(i64 400, i8* nonnull %6) #4
  call void @llvm.memset.p0i8.i64(i8* noundef nonnull align 16 dereferenceable(400) %6, i8 0, i64 400, i1 false)
  %7 = call i32 (i8*, ...) @__isoc99_scanf(i8* getelementptr inbounds ([3 x i8], [3 x i8]* @.str, i64 0, i64 0), i32* nonnull %2)
  %8 = load i32, i32* %2, align 4, !tbaa !5
  %9 = icmp sgt i32 %8, 0
  br i1 %9, label %14, label %94

10:                                               ; preds = %14
  %11 = icmp sgt i32 %24, 0
  br i1 %11, label %12, label %94

12:                                               ; preds = %10
  %13 = zext i32 %24 to i64
  br label %27

14:                                               ; preds = %0, %14
  %15 = phi i64 [ %23, %14 ], [ 0, %0 ]
  %16 = getelementptr inbounds [100 x %struct.student], [100 x %struct.student]* %1, i64 0, i64 %15, i32 0, i64 0
  %17 = getelementptr inbounds [100 x %struct.student], [100 x %struct.student]* %1, i64 0, i64 %15, i32 1
  %18 = getelementptr inbounds [100 x %struct.student], [100 x %struct.student]* %1, i64 0, i64 %15, i32 2
  %19 = getelementptr inbounds [100 x %struct.student], [100 x %struct.student]* %1, i64 0, i64 %15, i32 3
  %20 = getelementptr inbounds [100 x %struct.student], [100 x %struct.student]* %1, i64 0, i64 %15, i32 4
  %21 = getelementptr inbounds [100 x %struct.student], [100 x %struct.student]* %1, i64 0, i64 %15, i32 5
  %22 = call i32 (i8*, ...) @__isoc99_scanf(i8* getelementptr inbounds ([18 x i8], [18 x i8]* @.str.1, i64 0, i64 0), i8* nonnull %16, i32* nonnull %17, i32* nonnull %18, i8* nonnull %19, i8* nonnull %20, i32* nonnull %21)
  %23 = add nuw nsw i64 %15, 1
  %24 = load i32, i32* %2, align 4, !tbaa !5
  %25 = sext i32 %24 to i64
  %26 = icmp slt i64 %23, %25
  br i1 %26, label %14, label %10, !llvm.loop !9

27:                                               ; preds = %12, %79
  %28 = phi i64 [ 0, %12 ], [ %90, %79 ]
  %29 = phi i32 [ undef, %12 ], [ %89, %79 ]
  %30 = phi i32 [ undef, %12 ], [ %88, %79 ]
  %31 = phi i32 [ 0, %12 ], [ %82, %79 ]
  %32 = getelementptr inbounds [100 x %struct.student], [100 x %struct.student]* %1, i64 0, i64 %28, i32 1
  %33 = load i32, i32* %32, align 8, !tbaa !11
  %34 = icmp sgt i32 %33, 80
  br i1 %34, label %35, label %67

35:                                               ; preds = %27
  %36 = getelementptr inbounds [100 x %struct.student], [100 x %struct.student]* %1, i64 0, i64 %28, i32 5
  %37 = load i32, i32* %36, align 4, !tbaa !13
  %38 = icmp sgt i32 %37, 0
  br i1 %38, label %39, label %43

39:                                               ; preds = %35
  %40 = getelementptr inbounds [100 x i32], [100 x i32]* %3, i64 0, i64 %28
  %41 = load i32, i32* %40, align 4, !tbaa !5
  %42 = add nsw i32 %41, 8000
  store i32 %42, i32* %40, align 4, !tbaa !5
  br label %43

43:                                               ; preds = %39, %35
  %44 = icmp sgt i32 %33, 85
  br i1 %44, label %45, label %67

45:                                               ; preds = %43
  %46 = getelementptr inbounds [100 x %struct.student], [100 x %struct.student]* %1, i64 0, i64 %28, i32 2
  %47 = load i32, i32* %46, align 4, !tbaa !14
  %48 = icmp sgt i32 %47, 80
  br i1 %48, label %49, label %53

49:                                               ; preds = %45
  %50 = getelementptr inbounds [100 x i32], [100 x i32]* %3, i64 0, i64 %28
  %51 = load i32, i32* %50, align 4, !tbaa !5
  %52 = add nsw i32 %51, 4000
  store i32 %52, i32* %50, align 4, !tbaa !5
  br label %53

53:                                               ; preds = %49, %45
  %54 = icmp sgt i32 %33, 90
  br i1 %54, label %55, label %59

55:                                               ; preds = %53
  %56 = getelementptr inbounds [100 x i32], [100 x i32]* %3, i64 0, i64 %28
  %57 = load i32, i32* %56, align 4, !tbaa !5
  %58 = add nsw i32 %57, 2000
  store i32 %58, i32* %56, align 4, !tbaa !5
  br label %59

59:                                               ; preds = %55, %53
  %60 = getelementptr inbounds [100 x %struct.student], [100 x %struct.student]* %1, i64 0, i64 %28, i32 4
  %61 = load i8, i8* %60, align 1, !tbaa !15
  %62 = icmp eq i8 %61, 89
  br i1 %62, label %63, label %67

63:                                               ; preds = %59
  %64 = getelementptr inbounds [100 x i32], [100 x i32]* %3, i64 0, i64 %28
  %65 = load i32, i32* %64, align 4, !tbaa !5
  %66 = add nsw i32 %65, 1000
  store i32 %66, i32* %64, align 4, !tbaa !5
  br label %67

67:                                               ; preds = %43, %27, %63, %59
  %68 = getelementptr inbounds [100 x %struct.student], [100 x %struct.student]* %1, i64 0, i64 %28, i32 2
  %69 = load i32, i32* %68, align 4, !tbaa !14
  %70 = icmp sgt i32 %69, 80
  br i1 %70, label %71, label %79

71:                                               ; preds = %67
  %72 = getelementptr inbounds [100 x %struct.student], [100 x %struct.student]* %1, i64 0, i64 %28, i32 3
  %73 = load i8, i8* %72, align 8, !tbaa !16
  %74 = icmp eq i8 %73, 89
  br i1 %74, label %75, label %79

75:                                               ; preds = %71
  %76 = getelementptr inbounds [100 x i32], [100 x i32]* %3, i64 0, i64 %28
  %77 = load i32, i32* %76, align 4, !tbaa !5
  %78 = add nsw i32 %77, 850
  store i32 %78, i32* %76, align 4, !tbaa !5
  br label %79

79:                                               ; preds = %75, %71, %67
  %80 = getelementptr inbounds [100 x i32], [100 x i32]* %3, i64 0, i64 %28
  %81 = load i32, i32* %80, align 4, !tbaa !5
  %82 = add nsw i32 %81, %31
  %83 = icmp eq i64 %28, 0
  %84 = icmp sgt i32 %81, %30
  %85 = trunc i64 %28 to i32
  %86 = select i1 %84, i32 %85, i32 %29
  %87 = select i1 %83, i1 true, i1 %84
  %88 = select i1 %87, i32 %81, i32 %30
  %89 = select i1 %83, i32 0, i32 %86
  %90 = add nuw nsw i64 %28, 1
  %91 = icmp eq i64 %90, %13
  br i1 %91, label %92, label %27, !llvm.loop !17

92:                                               ; preds = %79
  %93 = sext i32 %89 to i64
  br label %94

94:                                               ; preds = %0, %92, %10
  %95 = phi i32 [ 0, %10 ], [ %82, %92 ], [ 0, %0 ]
  %96 = phi i64 [ 0, %10 ], [ %93, %92 ], [ 0, %0 ]
  %97 = getelementptr inbounds [100 x %struct.student], [100 x %struct.student]* %1, i64 0, i64 %96, i32 0, i64 0
  %98 = getelementptr inbounds [100 x i32], [100 x i32]* %3, i64 0, i64 %96
  %99 = load i32, i32* %98, align 4, !tbaa !5
  %100 = call i32 (i8*, ...) @printf(i8* nonnull dereferenceable(1) getelementptr inbounds ([10 x i8], [10 x i8]* @.str.2, i64 0, i64 0), i8* nonnull %97, i32 %99, i32 %95)
  call void @llvm.lifetime.end.p0i8(i64 400, i8* nonnull %6) #4
  call void @llvm.lifetime.end.p0i8(i64 4, i8* nonnull %5) #4
  call void @llvm.lifetime.end.p0i8(i64 4000, i8* nonnull %4) #4
  ret void
}

; Function Attrs: argmemonly mustprogress nofree nosync nounwind willreturn
declare void @llvm.lifetime.start.p0i8(i64 immarg, i8* nocapture) #1

; Function Attrs: argmemonly mustprogress nofree nounwind willreturn writeonly
declare void @llvm.memset.p0i8.i64(i8* nocapture writeonly, i8, i64, i1 immarg) #2

; Function Attrs: nofree nounwind
declare noundef i32 @__isoc99_scanf(i8* nocapture noundef readonly, ...) local_unnamed_addr #3

; Function Attrs: nofree nounwind
declare noundef i32 @printf(i8* nocapture noundef readonly, ...) local_unnamed_addr #3

; Function Attrs: argmemonly mustprogress nofree nosync nounwind willreturn
declare void @llvm.lifetime.end.p0i8(i64 immarg, i8* nocapture) #1


!llvm.module.flags = !{!0, !1, !2, !3}
!llvm.ident = !{!4}

!0 = !{i32 1, !"wchar_size", i32 4}
!1 = !{i32 7, !"PIC Level", i32 2}
!2 = !{i32 7, !"PIE Level", i32 2}
!3 = !{i32 7, !"uwtable", i32 1}
!4 = !{!"clang version 13.0.0"}
!5 = !{!6, !6, i64 0}
!6 = !{!"int", !7, i64 0}
!7 = !{!"omnipotent char", !8, i64 0}
!8 = !{!"Simple C/C++ TBAA"}
!9 = distinct !{!9, !10}
!10 = !{!"llvm.loop.mustprogress"}
!11 = !{!12, !6, i64 24}
!12 = !{!"student", !7, i64 0, !6, i64 24, !6, i64 28, !7, i64 32, !7, i64 33, !6, i64 36}
!13 = !{!12, !6, i64 36}
!14 = !{!12, !6, i64 28}
!15 = !{!12, !7, i64 33}
!16 = !{!12, !7, i64 32}
!17 = distinct !{!17, !10}
